target datalayout = "e-m:e-p270:32:32-p271:32:32-p272:64:64-i64:64-i128:128-f80:128-n8:16:32:64-S128"
target triple = "x86_64-pc-linux-gnu"

%struct.DecodedFrames = type { ptr, i64, i64 }

; Function Attrs: nounwind uwtable
define internal void @decoded_frames_free(ptr noundef %0) #0 {
  %2 = alloca ptr, align 8
  %3 = alloca i64, align 8
  store ptr %0, ptr %2, align 8, !tbaa !129
  call void @llvm.lifetime.start.p0(i64 8, ptr %3) #9
  store i64 0, ptr %3, align 8, !tbaa !62
  br label %4

4:                                                ; preds = %17, %1
  %5 = load i64, ptr %3, align 8, !tbaa !62
  %6 = load ptr, ptr %2, align 8, !tbaa !129
  %7 = getelementptr inbounds nuw %struct.DecodedFrames, ptr %6, i32 0, i32 2
  %8 = load i64, ptr %7, align 8, !tbaa !153
  %9 = icmp ult i64 %5, %8
  br i1 %9, label %11, label %10

10:                                               ; preds = %4
  call void @llvm.lifetime.end.p0(i64 8, ptr %3) #9
  br label %20

11:                                               ; preds = %4
  %12 = load ptr, ptr %2, align 8, !tbaa !129
  %13 = getelementptr inbounds nuw %struct.DecodedFrames, ptr %12, i32 0, i32 0
  %14 = load ptr, ptr %13, align 8, !tbaa !131
  %15 = load i64, ptr %3, align 8, !tbaa !62
  %16 = getelementptr inbounds nuw ptr, ptr %14, i64 %15
  call void @av_frame_free(ptr noundef %16)
  br label %17

17:                                               ; preds = %11
  %18 = load i64, ptr %3, align 8, !tbaa !62
  %19 = add i64 %18, 1
  store i64 %19, ptr %3, align 8, !tbaa !62
  br label %4, !llvm.loop !154

20:                                               ; preds = %10
  %21 = load ptr, ptr %2, align 8, !tbaa !129
  %22 = getelementptr inbounds nuw %struct.DecodedFrames, ptr %21, i32 0, i32 0
  call void @av_freep(ptr noundef %22)
  %23 = load ptr, ptr %2, align 8, !tbaa !129
  %24 = getelementptr inbounds nuw %struct.DecodedFrames, ptr %23, i32 0, i32 1
  store i64 0, ptr %24, align 8, !tbaa !132
  %25 = load ptr, ptr %2, align 8, !tbaa !129
  %26 = getelementptr inbounds nuw %struct.DecodedFrames, ptr %25, i32 0, i32 2
  store i64 0, ptr %26, align 8, !tbaa !153
  ret void
}