; Function Attrs: nounwind uwtable
define internal fastcc void @decoded_frames_free(ptr noundef %0) unnamed_addr #0 {
  %2 = getelementptr inbounds nuw i8, ptr %0, i64 16
  %3 = load i64, ptr %2, align 8, !tbaa !149
  %.not = icmp eq i64 %3, 0
  br i1 %.not, label %._crit_edge, label %.lr.ph

._crit_edge:                                      ; preds = %.lr.ph, %1
  tail call void @av_freep(ptr noundef nonnull %0) #11
  %4 = getelementptr inbounds nuw i8, ptr %0, i64 8
  tail call void @llvm.memset.p0.i64(ptr noundef nonnull align 8 dereferenceable(16) %4, i8 0, i64 16, i1 false)
  ret void

.lr.ph:                                           ; preds = %1, %.lr.ph
  %.07 = phi i64 [ %7, %.lr.ph ], [ 0, %1 ]
  %5 = load ptr, ptr %0, align 8, !tbaa !92
  %6 = getelementptr inbounds nuw ptr, ptr %5, i64 %.07
  tail call void @av_frame_free(ptr noundef %6) #11
  %7 = add nuw i64 %.07, 1
  %8 = load i64, ptr %2, align 8, !tbaa !149
  %9 = icmp ult i64 %7, %8
  br i1 %9, label %.lr.ph, label %._crit_edge, !llvm.loop !150
}